target datalayout = "e-m:e-p270:32:32-p271:32:32-p272:64:64-i64:64-i128:128-f80:128-n8:16:32:64-S128"
target triple = "x86_64-pc-linux-gnu"

@duckdb_je_opt_prof = external global i8, align 1

; Function Attrs: nounwind uwtable
define internal i32 @experimental_hooks_prof_sample_free_ctl(ptr noundef %0, ptr noundef %1, i64 noundef %2, ptr noundef %3, ptr noundef %4, ptr noundef %5, i64 noundef %6) #0 {
  %8 = alloca i32, align 4
  %9 = alloca ptr, align 8
  %10 = alloca ptr, align 8
  %11 = alloca i64, align 8
  %12 = alloca ptr, align 8
  %13 = alloca ptr, align 8
  %14 = alloca ptr, align 8
  %15 = alloca i64, align 8
  %16 = alloca i32, align 4
  %17 = alloca ptr, align 8
  %18 = alloca i64, align 8
  %19 = alloca i32, align 4
  %20 = alloca ptr, align 8
  store ptr %0, ptr %9, align 8, !tbaa !3
  store ptr %1, ptr %10, align 8, !tbaa !11
  store i64 %2, ptr %11, align 8, !tbaa !13
  store ptr %3, ptr %12, align 8, !tbaa !10
  store ptr %4, ptr %13, align 8, !tbaa !11
  store ptr %5, ptr %14, align 8, !tbaa !10
  store i64 %6, ptr %15, align 8, !tbaa !13
  call void @llvm.lifetime.start.p0(i64 4, ptr %16) #13
  %21 = load ptr, ptr %12, align 8, !tbaa !10
  %22 = icmp eq ptr %21, null
  br i1 %22, label %23, label %27

23:                                               ; preds = %7
  %24 = load ptr, ptr %14, align 8, !tbaa !10
  %25 = icmp eq ptr %24, null
  br i1 %25, label %26, label %27

26:                                               ; preds = %23
  store i32 22, ptr %16, align 4, !tbaa !19
  br label %91

27:                                               ; preds = %23, %7
  %28 = load ptr, ptr %12, align 8, !tbaa !10
  %29 = icmp ne ptr %28, null
  br i1 %29, label %30, label %65

30:                                               ; preds = %27
  call void @llvm.lifetime.start.p0(i64 8, ptr %17) #13
  %31 = call ptr @duckdb_je_prof_sample_free_hook_get()
  store ptr %31, ptr %17, align 8, !tbaa !10
  br label %32

32:                                               ; preds = %30
  %33 = load ptr, ptr %12, align 8, !tbaa !10
  %34 = icmp ne ptr %33, null
  br i1 %34, label %35, label %59

35:                                               ; preds = %32
  %36 = load ptr, ptr %13, align 8, !tbaa !11
  %37 = icmp ne ptr %36, null
  br i1 %37, label %38, label %59

38:                                               ; preds = %35
  %39 = load ptr, ptr %13, align 8, !tbaa !11
  %40 = load i64, ptr %39, align 8, !tbaa !13
  %41 = icmp ne i64 %40, 8
  br i1 %41, label %42, label %56

42:                                               ; preds = %38
  call void @llvm.lifetime.start.p0(i64 8, ptr %18) #13
  %43 = load ptr, ptr %13, align 8, !tbaa !11
  %44 = load i64, ptr %43, align 8, !tbaa !13
  %45 = icmp ule i64 8, %44
  br i1 %45, label %46, label %47

46:                                               ; preds = %42
  br label %50

47:                                               ; preds = %42
  %48 = load ptr, ptr %13, align 8, !tbaa !11
  %49 = load i64, ptr %48, align 8, !tbaa !13
  br label %50

50:                                               ; preds = %47, %46
  %51 = phi i64 [ 8, %46 ], [ %49, %47 ]
  store i64 %51, ptr %18, align 8, !tbaa !13
  %52 = load ptr, ptr %12, align 8, !tbaa !10
  %53 = load i64, ptr %18, align 8, !tbaa !13
  call void @llvm.memcpy.p0.p0.i64(ptr align 1 %52, ptr align 1 %17, i64 %53, i1 false)
  %54 = load i64, ptr %18, align 8, !tbaa !13
  %55 = load ptr, ptr %13, align 8, !tbaa !11
  store i64 %54, ptr %55, align 8, !tbaa !13
  store i32 22, ptr %16, align 4, !tbaa !19
  store i32 2, ptr %19, align 4
  call void @llvm.lifetime.end.p0(i64 8, ptr %18) #13
  br label %62

56:                                               ; preds = %38
  %57 = load ptr, ptr %17, align 8, !tbaa !10
  %58 = load ptr, ptr %12, align 8, !tbaa !10
  store ptr %57, ptr %58, align 8, !tbaa !10
  br label %59

59:                                               ; preds = %56, %35, %32
  br label %60

60:                                               ; preds = %59
  br label %61

61:                                               ; preds = %60
  store i32 0, ptr %19, align 4
  br label %62

62:                                               ; preds = %61, %50
  call void @llvm.lifetime.end.p0(i64 8, ptr %17) #13
  %63 = load i32, ptr %19, align 4
  switch i32 %63, label %93 [
    i32 0, label %64
    i32 2, label %91
  ]

64:                                               ; preds = %62
  br label %65

65:                                               ; preds = %64, %27
  %66 = load ptr, ptr %14, align 8, !tbaa !10
  %67 = icmp ne ptr %66, null
  br i1 %67, label %68, label %90

68:                                               ; preds = %65
  %69 = load i8, ptr @duckdb_je_opt_prof, align 1, !tbaa !15, !range !17, !noundef !18
  %70 = trunc i8 %69 to i1
  br i1 %70, label %72, label %71

71:                                               ; preds = %68
  store i32 2, ptr %16, align 4, !tbaa !19
  br label %91

72:                                               ; preds = %68
  call void @llvm.lifetime.start.p0(i64 8, ptr %20) #13
  store ptr null, ptr %20, align 8, !tbaa !10
  br label %73

73:                                               ; preds = %72
  %74 = load ptr, ptr %14, align 8, !tbaa !10
  %75 = icmp ne ptr %74, null
  br i1 %75, label %76, label %83

76:                                               ; preds = %73
  %77 = load i64, ptr %15, align 8, !tbaa !13
  %78 = icmp ne i64 %77, 8
  br i1 %78, label %79, label %80

79:                                               ; preds = %76
  store i32 22, ptr %16, align 4, !tbaa !19
  store i32 2, ptr %19, align 4
  br label %87

80:                                               ; preds = %76
  %81 = load ptr, ptr %14, align 8, !tbaa !10
  %82 = load ptr, ptr %81, align 8, !tbaa !10
  store ptr %82, ptr %20, align 8, !tbaa !10
  br label %83

83:                                               ; preds = %80, %73
  br label %84

84:                                               ; preds = %83
  br label %85

85:                                               ; preds = %84
  %86 = load ptr, ptr %20, align 8, !tbaa !10
  call void @duckdb_je_prof_sample_free_hook_set(ptr noundef %86)
  store i32 0, ptr %19, align 4
  br label %87

87:                                               ; preds = %79, %85
  call void @llvm.lifetime.end.p0(i64 8, ptr %20) #13
  %88 = load i32, ptr %19, align 4
  switch i32 %88, label %93 [
    i32 0, label %89
    i32 2, label %91
  ]

89:                                               ; preds = %87
  br label %90

90:                                               ; preds = %89, %65
  store i32 0, ptr %16, align 4, !tbaa !19
  br label %91

91:                                               ; preds = %90, %87, %62, %71, %26
  %92 = load i32, ptr %16, align 4, !tbaa !19
  store i32 %92, ptr %8, align 4
  store i32 1, ptr %19, align 4
  br label %93

93:                                               ; preds = %91, %87, %62
  call void @llvm.lifetime.end.p0(i64 4, ptr %16) #13
  %94 = load i32, ptr %8, align 4
  ret i32 %94
}